Certificate:
    Data:
        Version: 3 (0x2)
        Serial Number: 1 (0x1)
    Signature Algorithm: sha256WithRSAEncryption
        Issuer: CN=devcert
        Validity
            Not Before: Apr 22 16:42:50 2020 GMT
            Not After : Jul 26 16:42:50 2022 GMT
        Subject: CN=localhost
        Subject Public Key Info:
            Public Key Algorithm: rsaEncryption
                Public-Key: (2048 bit)
                Modulus:
                    00:b1:19:6a:41:99:ae:18:b7:94:40:3c:b4:2a:c5:
                    6f:82:86:af:20:da:d9:a8:31:c6:2b:c2:c5:6d:10:
                    cb:43:2a:d3:5d:02:96:fe:4c:07:cb:63:81:4c:e5:
                    07:51:11:a1:14:80:89:4b:be:8b:1b:95:e2:65:d9:
                    0c:5e:09:11:78:ec:c4:a9:0b:e6:6f:9f:c4:bf:a9:
                    03:9d:48:8e:30:7d:0d:78:e0:0f:aa:49:a2:b4:30:
                    6e:2c:27:ab:75:92:4a:cb:1d:b5:68:29:c2:a8:ed:
                    ed:f6:1e:7b:9d:44:18:28:87:85:0a:9b:06:4d:e9:
                    13:84:f8:88:fc:3e:e9:f8:ec:55:27:b1:f4:e2:1f:
                    f0:cd:90:37:1e:18:e0:ae:49:7c:07:7d:b6:33:aa:
                    2a:d4:b9:d7:87:6e:c3:cf:0a:75:b5:ca:11:54:cc:
                    e4:80:38:bd:e7:f7:85:47:61:8d:d8:4e:b4:8e:d8:
                    72:0e:4a:b0:66:11:f1:69:c8:95:be:62:08:3a:5a:
                    7b:a7:91:1b:c2:4e:35:e0:aa:d2:9a:92:0f:1c:c8:
                    8a:ce:dc:75:c2:f8:04:0f:35:2e:dd:bf:3e:20:ef:
                    df:68:9a:6e:25:6d:8d:b0:8c:64:b5:7e:90:cf:6a:
                    6f:cc:d2:98:8e:77:2e:82:b7:72:24:78:a2:62:75:
                    6f:21
                Exponent: 65537 (0x10001)
        X509v3 extensions:
            X509v3 Basic Constraints: critical
                CA:FALSE
            X509v3 Subject Key Identifier: 
                1F:4B:06:61:57:A1:E0:BC:F0:D2:61:B5:E1:BB:5C:9A:5B:5B:86:28
            X509v3 Authority Key Identifier: 
                keyid:12:B7:E5:B1:03:3D:C1:D0:55:BF:08:D5:B0:F4:3F:89:1A:E0:97:5F
                DirName:/CN=devcert
                serial:D7:D7:CB:FF:13:6D:19:39

            X509v3 Key Usage: critical
                Digital Signature, Key Encipherment
            X509v3 Extended Key Usage: 
                TLS Web Server Authentication
            X509v3 Subject Alternative Name: 
                DNS:localhost, DNS:*.localhost
    Signature Algorithm: sha256WithRSAEncryption
         1c:3b:c7:bc:6b:34:df:b4:94:b1:26:0b:91:90:aa:cb:53:c5:
         6d:b6:f3:85:49:2e:ed:80:3f:26:1e:e6:8b:c3:16:94:34:4c:
         c1:62:fb:9a:8a:38:a0:54:a4:73:88:ae:75:5b:79:63:48:17:
         41:46:99:9d:26:f0:60:9a:f9:dc:b3:2b:d9:bd:d5:20:7f:52:
         36:10:d6:e0:3e:d6:c5:6b:02:b8:3d:12:f1:18:7a:59:8f:73:
         8e:9b:3d:c9:3f:93:e1:33:d4:54:5e:17:a9:f2:5d:bb:80:24:
         11:77:6e:7e:c8:b0:2b:61:a0:cc:68:f1:15:b4:e3:83:6d:62:
         17:e0:5e:41:bd:6d:78:1b:ac:0f:f6:a9:94:23:d3:61:5c:35:
         d1:ba:9c:ef:6d:ec:e0:4c:c2:cc:70:46:04:4e:01:fb:03:97:
         7e:a9:82:68:c7:57:d3:bf:a0:14:41:8d:8b:ae:60:73:f6:73:
         ee:e6:be:91:b1:ad:09:4a:4b:79:2f:ca:df:8f:2b:0a:d6:d4:
         5c:8c:f6:ca:81:ff:a2:6b:52:28:cc:0a:8e:24:5f:69:f2:09:
         a0:56:bb:12:6a:b3:a9:f3:cb:e4:ec:95:e4:eb:f5:7f:50:77:
         a1:2f:51:5e:62:9e:63:e1:49:34:e7:ce:10:d7:d8:14:60:f6:
         cd:01:5a:99
-----BEGIN CERTIFICATE-----
MIIDXjCCAkagAwIBAgIBATANBgkqhkiG9w0BAQsFADASMRAwDgYDVQQDDAdkZXZj
ZXJ0MB4XDTIwMDQyMjE2NDI1MFoXDTIyMDcyNjE2NDI1MFowFDESMBAGA1UEAwwJ
bG9jYWxob3N0MIIBIjANBgkqhkiG9w0BAQEFAAOCAQ8AMIIBCgKCAQEAsRlqQZmu
GLeUQDy0KsVvgoavINrZqDHGK8LFbRDLQyrTXQKW/kwHy2OBTOUHURGhFICJS76L
G5XiZdkMXgkReOzEqQvmb5/Ev6kDnUiOMH0NeOAPqkmitDBuLCerdZJKyx21aCnC
qO3t9h57nUQYKIeFCpsGTekThPiI/D7p+OxVJ7H04h/wzZA3Hhjgrkl8B322M6oq
1LnXh27Dzwp1tcoRVMzkgDi95/eFR2GN2E60jthyDkqwZhHxaciVvmIIOlp7p5Eb
wk414KrSmpIPHMiKztx1wvgEDzUu3b8+IO/faJpuJW2NsIxktX6Qz2pvzNKYjncu
grdyJHiiYnVvIQIDAQABo4G8MIG5MAwGA1UdEwEB/wQCMAAwHQYDVR0OBBYEFB9L
BmFXoeC88NJhteG7XJpbW4YoMEIGA1UdIwQ7MDmAFBK35bEDPcHQVb8I1bD0P4ka
4JdfoRakFDASMRAwDgYDVQQDDAdkZXZjZXJ0ggkA19fL/xNtGTkwDgYDVR0PAQH/
BAQDAgWgMBMGA1UdJQQMMAoGCCsGAQUFBwMBMCEGA1UdEQQaMBiCCWxvY2FsaG9z
dIILKi5sb2NhbGhvc3QwDQYJKoZIhvcNAQELBQADggEBABw7x7xrNN+0lLEmC5GQ
qstTxW2284VJLu2APyYe5ovDFpQ0TMFi+5qKOKBUpHOIrnVbeWNIF0FGmZ0m8GCa
+dyzK9m91SB/UjYQ1uA+1sVrArg9EvEYelmPc46bPck/k+Ez1FReF6nyXbuAJBF3
bn7IsCthoMxo8RW044NtYhfgXkG9bXgbrA/2qZQj02FcNdG6nO9t7OBMwsxwRgRO
AfsDl36pgmjHV9O/oBRBjYuuYHP2c+7mvpGxrQlKS3kvyt+PKwrW1FyM9sqB/6Jr
UijMCo4kX2nyCaBWuxJqs6nzy+TsleTr9X9Qd6EvUV5inmPhSTTnzhDX2BRg9s0B
Wpk=
-----END CERTIFICATE-----
